target datalayout = "e-m:e-p270:32:32-p271:32:32-p272:64:64-i64:64-i128:128-f80:128-n8:16:32:64-S128"
target triple = "x86_64-pc-linux-gnu"

%"struct.std::__atomic_base.77" = type { i64 }

@_ZZN4base28PersistentHistogramAllocator33GetCreateHistogramResultHistogramEvE24atomic_histogram_pointer = internal global i64 0, align 8
@_ZZN4base28PersistentHistogramAllocator33GetCreateHistogramResultHistogramEvE11initialized = internal global i8 0, align 1
@_ZN4base12_GLOBAL__N_111g_allocatorE = internal global ptr null, align 8
@_ZN4base12_GLOBAL__N_116kResultHistogramE = internal constant [37 x i8] c"UMA.CreatePersistentHistogram.Result\00", align 16

; Function Attrs: mustprogress nounwind uwtable
define linkonce_odr noundef i32 @_ZStanSt12memory_orderSt23__memory_order_modifier(i32 noundef %0, i32 noundef %1) #2 comdat {
  %3 = alloca i32, align 4
  %4 = alloca i32, align 4
  store i32 %0, ptr %3, align 4, !tbaa !283
  store i32 %1, ptr %4, align 4, !tbaa !285
  %5 = load i32, ptr %3, align 4, !tbaa !283
  %6 = load i32, ptr %4, align 4, !tbaa !285
  %7 = and i32 %5, %6
  ret i32 %7
}

; Function Attrs: alwaysinline mustprogress nounwind uwtable
define linkonce_odr void @_ZNVSt13__atomic_baseIlE5storeElSt12memory_order(ptr noundef nonnull align 8 dereferenceable(8) %0, i64 noundef %1, i32 noundef %2) #11 comdat align 2 {
  %4 = alloca ptr, align 8
  %5 = alloca i64, align 8
  %6 = alloca i32, align 4
  %7 = alloca i32, align 4
  %8 = alloca i64, align 8
  store ptr %0, ptr %4, align 8, !tbaa !287
  store i64 %1, ptr %5, align 8, !tbaa !32
  store i32 %2, ptr %6, align 4, !tbaa !283
  %9 = load ptr, ptr %4, align 8
  call void @llvm.lifetime.start.p0(i64 4, ptr %7) #17
  %10 = load i32, ptr %6, align 4, !tbaa !283
  %11 = call noundef i32 @_ZStanSt12memory_orderSt23__memory_order_modifier(i32 noundef %10, i32 noundef 65535)
  store i32 %11, ptr %7, align 4, !tbaa !283
  br label %12

12:                                               ; preds = %3
  br label %13

13:                                               ; preds = %12
  br label %14

14:                                               ; preds = %13
  br label %15

15:                                               ; preds = %14
  br label %16

16:                                               ; preds = %15
  br label %17

17:                                               ; preds = %16
  br label %18

18:                                               ; preds = %17
  br label %19

19:                                               ; preds = %18
  br label %20

20:                                               ; preds = %19
  %21 = getelementptr inbounds nuw %"struct.std::__atomic_base.77", ptr %9, i32 0, i32 0
  %22 = load i32, ptr %6, align 4, !tbaa !283
  %23 = load i64, ptr %5, align 8, !tbaa !32
  store i64 %23, ptr %8, align 8, !tbaa !32
  switch i32 %22, label %24 [
    i32 3, label %26
    i32 5, label %28
  ]

24:                                               ; preds = %20
  %25 = load i64, ptr %8, align 8
  store atomic volatile i64 %25, ptr %21 monotonic, align 8
  br label %30

26:                                               ; preds = %20
  %27 = load i64, ptr %8, align 8
  store atomic volatile i64 %27, ptr %21 release, align 8
  br label %30

28:                                               ; preds = %20
  %29 = load i64, ptr %8, align 8
  store atomic volatile i64 %29, ptr %21 seq_cst, align 8
  br label %30

30:                                               ; preds = %28, %26, %24
  call void @llvm.lifetime.end.p0(i64 4, ptr %7) #17
  ret void
}

; Function Attrs: alwaysinline mustprogress nounwind uwtable
define linkonce_odr noundef i64 @_ZNVKSt13__atomic_baseIlE4loadESt12memory_order(ptr noundef nonnull align 8 dereferenceable(8) %0, i32 noundef %1) #11 comdat align 2 {
  %3 = alloca ptr, align 8
  %4 = alloca i32, align 4
  %5 = alloca i32, align 4
  %6 = alloca i64, align 8
  store ptr %0, ptr %3, align 8, !tbaa !287
  store i32 %1, ptr %4, align 4, !tbaa !283
  %7 = load ptr, ptr %3, align 8
  call void @llvm.lifetime.start.p0(i64 4, ptr %5) #17
  %8 = load i32, ptr %4, align 4, !tbaa !283
  %9 = call noundef i32 @_ZStanSt12memory_orderSt23__memory_order_modifier(i32 noundef %8, i32 noundef 65535)
  store i32 %9, ptr %5, align 4, !tbaa !283
  br label %10

10:                                               ; preds = %2
  br label %11

11:                                               ; preds = %10
  br label %12

12:                                               ; preds = %11
  br label %13

13:                                               ; preds = %12
  br label %14

14:                                               ; preds = %13
  br label %15

15:                                               ; preds = %14
  %16 = getelementptr inbounds nuw %"struct.std::__atomic_base.77", ptr %7, i32 0, i32 0
  %17 = load i32, ptr %4, align 4, !tbaa !283
  switch i32 %17, label %18 [
    i32 1, label %20
    i32 2, label %20
    i32 5, label %22
  ]

18:                                               ; preds = %15
  %19 = load atomic volatile i64, ptr %16 monotonic, align 8
  store i64 %19, ptr %6, align 8
  br label %24

20:                                               ; preds = %15, %15
  %21 = load atomic volatile i64, ptr %16 acquire, align 8
  store i64 %21, ptr %6, align 8
  br label %24

22:                                               ; preds = %15
  %23 = load atomic volatile i64, ptr %16 seq_cst, align 8
  store i64 %23, ptr %6, align 8
  br label %24

24:                                               ; preds = %22, %20, %18
  %25 = load i64, ptr %6, align 8, !tbaa !32
  call void @llvm.lifetime.end.p0(i64 4, ptr %5) #17
  ret i64 %25
}

; Function Attrs: inlinehint mustprogress nounwind uwtable
define linkonce_odr void @_ZN4base6subtle13Release_StoreEPVll(ptr noundef %0, i64 noundef %1) #7 comdat {
  %3 = alloca ptr, align 8
  %4 = alloca i64, align 8
  store ptr %0, ptr %3, align 8, !tbaa !50
  store i64 %1, ptr %4, align 8, !tbaa !32
  %5 = load ptr, ptr %3, align 8, !tbaa !50
  %6 = load i64, ptr %4, align 8, !tbaa !32
  call void @_ZNVSt13__atomic_baseIlE5storeElSt12memory_order(ptr noundef nonnull align 8 dereferenceable(8) %5, i64 noundef %6, i32 noundef 3) #17
  ret void
}

; Function Attrs: inlinehint mustprogress nounwind uwtable
define linkonce_odr noundef i64 @_ZN4base6subtle12Acquire_LoadEPVKl(ptr noundef %0) #7 comdat {
  %2 = alloca ptr, align 8
  store ptr %0, ptr %2, align 8, !tbaa !50
  %3 = load ptr, ptr %2, align 8, !tbaa !50
  %4 = call noundef i64 @_ZNVKSt13__atomic_baseIlE4loadESt12memory_order(ptr noundef nonnull align 8 dereferenceable(8) %3, i32 noundef 2) #17
  ret i64 %4
}

; Function Attrs: mustprogress uwtable
define noundef ptr @_ZN4base28PersistentHistogramAllocator33GetCreateHistogramResultHistogramEv() #0 align 2 {
  %1 = alloca ptr, align 8
  call void @llvm.lifetime.start.p0(i64 8, ptr %1) #17
  %2 = call noundef i64 @_ZN4base6subtle12Acquire_LoadEPVKl(ptr noundef @_ZZN4base28PersistentHistogramAllocator33GetCreateHistogramResultHistogramEvE24atomic_histogram_pointer)
  %3 = inttoptr i64 %2 to ptr
  store ptr %3, ptr %1, align 8, !tbaa !122
  %4 = load ptr, ptr %1, align 8, !tbaa !122
  %5 = icmp ne ptr %4, null
  br i1 %5, label %18, label %6

6:                                                ; preds = %0
  %7 = load i8, ptr @_ZZN4base28PersistentHistogramAllocator33GetCreateHistogramResultHistogramEvE11initialized, align 1, !tbaa !62, !range !66, !noundef !67
  %8 = trunc i8 %7 to i1
  br i1 %8, label %17, label %9

9:                                                ; preds = %6
  store i8 1, ptr @_ZZN4base28PersistentHistogramAllocator33GetCreateHistogramResultHistogramEvE11initialized, align 1, !tbaa !62
  %10 = load ptr, ptr @_ZN4base12_GLOBAL__N_111g_allocatorE, align 8, !tbaa !160
  %11 = icmp ne ptr %10, null
  br i1 %11, label %12, label %13

12:                                               ; preds = %9
  br label %13

13:                                               ; preds = %12, %9
  %14 = call noundef ptr @_ZN4base15LinearHistogram10FactoryGetEPKciiji(ptr noundef @_ZN4base12_GLOBAL__N_116kResultHistogramE, i32 noundef 1, i32 noundef 10, i32 noundef 11, i32 noundef 1)
  store ptr %14, ptr %1, align 8, !tbaa !122
  %15 = load ptr, ptr %1, align 8, !tbaa !122
  %16 = ptrtoint ptr %15 to i64
  call void @_ZN4base6subtle13Release_StoreEPVll(ptr noundef @_ZZN4base28PersistentHistogramAllocator33GetCreateHistogramResultHistogramEvE24atomic_histogram_pointer, i64 noundef %16)
  br label %17

17:                                               ; preds = %13, %6
  br label %18

18:                                               ; preds = %17, %0
  %19 = load ptr, ptr %1, align 8, !tbaa !122
  call void @llvm.lifetime.end.p0(i64 8, ptr %1) #17
  ret ptr %19
}