; Function Attrs: mustprogress uwtable
define noundef ptr @_ZN4base28PersistentHistogramAllocator33GetCreateHistogramResultHistogramEv() local_unnamed_addr #0 align 2 {
  %1 = load atomic volatile i64, ptr @_ZZN4base28PersistentHistogramAllocator33GetCreateHistogramResultHistogramEvE24atomic_histogram_pointer acquire, align 8
  %2 = inttoptr i64 %1 to ptr
  %.not = icmp eq i64 %1, 0
  br i1 %.not, label %3, label %7

3:                                                ; preds = %0
  %.b4 = load i1, ptr @_ZZN4base28PersistentHistogramAllocator33GetCreateHistogramResultHistogramEvE11initialized, align 1
  br i1 %.b4, label %7, label %4

4:                                                ; preds = %3
  store i1 true, ptr @_ZZN4base28PersistentHistogramAllocator33GetCreateHistogramResultHistogramEvE11initialized, align 1
  %5 = tail call noundef ptr @_ZN4base15LinearHistogram10FactoryGetEPKciiji(ptr noundef nonnull @_ZN4base12_GLOBAL__N_116kResultHistogramE, i32 noundef 1, i32 noundef 10, i32 noundef 11, i32 noundef 1)
  %6 = ptrtoint ptr %5 to i64
  store atomic volatile i64 %6, ptr @_ZZN4base28PersistentHistogramAllocator33GetCreateHistogramResultHistogramEvE24atomic_histogram_pointer release, align 8
  br label %7

7:                                                ; preds = %3, %4, %0
  %.0 = phi ptr [ %2, %0 ], [ null, %3 ], [ %5, %4 ]
  ret ptr %.0
}